target datalayout = "e-m:e-p270:32:32-p271:32:32-p272:64:64-i64:64-i128:128-f80:128-n8:16:32:64-S128"
target triple = "x86_64-pc-linux-gnu"

%struct.JNINativeInterface_ = type { ptr, ptr, ptr, ptr, ptr, ptr, ptr, ptr, ptr, ptr, ptr, ptr, ptr, ptr, ptr, ptr, ptr, ptr, ptr, ptr, ptr, ptr, ptr, ptr, ptr, ptr, ptr, ptr, ptr, ptr, ptr, ptr, ptr, ptr, ptr, ptr, ptr, ptr, ptr, ptr, ptr, ptr, ptr, ptr, ptr, ptr, ptr, ptr, ptr, ptr, ptr, ptr, ptr, ptr, ptr, ptr, ptr, ptr, ptr, ptr, ptr, ptr, ptr, ptr, ptr, ptr, ptr, ptr, ptr, ptr, ptr, ptr, ptr, ptr, ptr, ptr, ptr, ptr, ptr, ptr, ptr, ptr, ptr, ptr, ptr, ptr, ptr, ptr, ptr, ptr, ptr, ptr, ptr, ptr, ptr, ptr, ptr, ptr, ptr, ptr, ptr, ptr, ptr, ptr, ptr, ptr, ptr, ptr, ptr, ptr, ptr, ptr, ptr, ptr, ptr, ptr, ptr, ptr, ptr, ptr, ptr, ptr, ptr, ptr, ptr, ptr, ptr, ptr, ptr, ptr, ptr, ptr, ptr, ptr, ptr, ptr, ptr, ptr, ptr, ptr, ptr, ptr, ptr, ptr, ptr, ptr, ptr, ptr, ptr, ptr, ptr, ptr, ptr, ptr, ptr, ptr, ptr, ptr, ptr, ptr, ptr, ptr, ptr, ptr, ptr, ptr, ptr, ptr, ptr, ptr, ptr, ptr, ptr, ptr, ptr, ptr, ptr, ptr, ptr, ptr, ptr, ptr, ptr, ptr, ptr, ptr, ptr, ptr, ptr, ptr, ptr, ptr, ptr, ptr, ptr, ptr, ptr, ptr, ptr, ptr, ptr, ptr, ptr, ptr, ptr, ptr, ptr, ptr, ptr, ptr, ptr, ptr, ptr, ptr, ptr, ptr, ptr, ptr, ptr, ptr, ptr, ptr, ptr, ptr, ptr, ptr, ptr, ptr, ptr, ptr, ptr, ptr, ptr, ptr, ptr }
%struct.JNIInvokeInterface_ = type { ptr, ptr, ptr, ptr, ptr, ptr, ptr, ptr }

@.str = private unnamed_addr constant [49 x i8] c"sun/security/pkcs11/wrapper/CK_C_INITIALIZE_ARGS\00", align 1
@.str.5 = private unnamed_addr constant [10 x i8] c"LockMutex\00", align 1
@.str.6 = private unnamed_addr constant [43 x i8] c"Lsun/security/pkcs11/wrapper/CK_LOCKMUTEX;\00", align 1
@jInitArgsObject = hidden global ptr null, align 8
@jvm_j2pkcs11 = external global ptr, align 8
@.str.16 = private unnamed_addr constant [44 x i8] c"sun/security/pkcs11/wrapper/PKCS11Exception\00", align 1
@.str.17 = private unnamed_addr constant [13 x i8] c"getErrorCode\00", align 1
@.str.18 = private unnamed_addr constant [4 x i8] c"()J\00", align 1
@.str.21 = private unnamed_addr constant [22 x i8] c"(Ljava/lang/Object;)V\00", align 1
@.str.22 = private unnamed_addr constant [41 x i8] c"sun/security/pkcs11/wrapper/CK_LOCKMUTEX\00", align 1
@.str.23 = private unnamed_addr constant [13 x i8] c"CK_LOCKMUTEX\00", align 1

; Function Attrs: nounwind uwtable
define hidden i64 @callJLockMutex(ptr noundef %0) #0 {
  %2 = alloca i64, align 8
  %3 = alloca ptr, align 8
  %4 = alloca ptr, align 8
  %5 = alloca i32, align 4
  %6 = alloca ptr, align 8
  %7 = alloca ptr, align 8
  %8 = alloca i64, align 8
  %9 = alloca i64, align 8
  %10 = alloca i32, align 4
  %11 = alloca ptr, align 8
  %12 = alloca ptr, align 8
  %13 = alloca ptr, align 8
  %14 = alloca ptr, align 8
  %15 = alloca ptr, align 8
  %16 = alloca ptr, align 8
  store ptr %0, ptr %3, align 8
  store i64 0, ptr %9, align 8
  store i32 1, ptr %10, align 4
  %17 = load ptr, ptr @jvm_j2pkcs11, align 8
  %18 = icmp eq ptr %17, null
  br i1 %18, label %19, label %21

19:                                               ; preds = %1
  %20 = load i64, ptr %9, align 8
  store i64 %20, ptr %2, align 8
  br label %166

21:                                               ; preds = %1
  %22 = load ptr, ptr @jvm_j2pkcs11, align 8
  %23 = load ptr, ptr %22, align 8
  %24 = getelementptr inbounds %struct.JNIInvokeInterface_, ptr %23, i32 0, i32 6
  %25 = load ptr, ptr %24, align 8
  %26 = load ptr, ptr @jvm_j2pkcs11, align 8
  %27 = call i32 %25(ptr noundef %26, ptr noundef %4, i32 noundef 65538)
  store i32 %27, ptr %5, align 4
  %28 = load i32, ptr %5, align 4
  %29 = icmp eq i32 %28, -2
  br i1 %29, label %30, label %37

30:                                               ; preds = %21
  store i32 0, ptr %10, align 4
  %31 = load ptr, ptr @jvm_j2pkcs11, align 8
  %32 = load ptr, ptr %31, align 8
  %33 = getelementptr inbounds %struct.JNIInvokeInterface_, ptr %32, i32 0, i32 4
  %34 = load ptr, ptr %33, align 8
  %35 = load ptr, ptr @jvm_j2pkcs11, align 8
  %36 = call i32 %34(ptr noundef %35, ptr noundef %4, ptr noundef null)
  store i32 %36, ptr %5, align 4
  br label %49

37:                                               ; preds = %21
  %38 = load i32, ptr %5, align 4
  %39 = icmp eq i32 %38, -3
  br i1 %39, label %40, label %47

40:                                               ; preds = %37
  store i32 1, ptr %10, align 4
  %41 = load ptr, ptr @jvm_j2pkcs11, align 8
  %42 = load ptr, ptr %41, align 8
  %43 = getelementptr inbounds %struct.JNIInvokeInterface_, ptr %42, i32 0, i32 4
  %44 = load ptr, ptr %43, align 8
  %45 = load ptr, ptr @jvm_j2pkcs11, align 8
  %46 = call i32 %44(ptr noundef %45, ptr noundef %4, ptr noundef null)
  store i32 %46, ptr %5, align 4
  br label %48

47:                                               ; preds = %37
  store i32 1, ptr %10, align 4
  br label %48

48:                                               ; preds = %47, %40
  br label %49

49:                                               ; preds = %48, %30
  %50 = load ptr, ptr %4, align 8
  %51 = load ptr, ptr %50, align 8
  %52 = getelementptr inbounds %struct.JNINativeInterface_, ptr %51, i32 0, i32 6
  %53 = load ptr, ptr %52, align 8
  %54 = load ptr, ptr %4, align 8
  %55 = call ptr %53(ptr noundef %54, ptr noundef @.str.22)
  store ptr %55, ptr %11, align 8
  %56 = load ptr, ptr %11, align 8
  %57 = icmp eq ptr %56, null
  br i1 %57, label %58, label %60

58:                                               ; preds = %49
  %59 = load i64, ptr %9, align 8
  store i64 %59, ptr %2, align 8
  br label %166

60:                                               ; preds = %49
  %61 = load ptr, ptr %4, align 8
  %62 = load ptr, ptr %61, align 8
  %63 = getelementptr inbounds %struct.JNINativeInterface_, ptr %62, i32 0, i32 6
  %64 = load ptr, ptr %63, align 8
  %65 = load ptr, ptr %4, align 8
  %66 = call ptr %64(ptr noundef %65, ptr noundef @.str)
  store ptr %66, ptr %12, align 8
  %67 = load ptr, ptr %12, align 8
  %68 = icmp eq ptr %67, null
  br i1 %68, label %69, label %71

69:                                               ; preds = %60
  %70 = load i64, ptr %9, align 8
  store i64 %70, ptr %2, align 8
  br label %166

71:                                               ; preds = %60
  %72 = load ptr, ptr %3, align 8
  store ptr %72, ptr %16, align 8
  %73 = load ptr, ptr %4, align 8
  %74 = load ptr, ptr %73, align 8
  %75 = getelementptr inbounds %struct.JNINativeInterface_, ptr %74, i32 0, i32 94
  %76 = load ptr, ptr %75, align 8
  %77 = load ptr, ptr %4, align 8
  %78 = load ptr, ptr %12, align 8
  %79 = call ptr %76(ptr noundef %77, ptr noundef %78, ptr noundef @.str.5, ptr noundef @.str.6)
  store ptr %79, ptr %14, align 8
  %80 = load ptr, ptr %14, align 8
  %81 = icmp eq ptr %80, null
  br i1 %81, label %82, label %84

82:                                               ; preds = %71
  %83 = load i64, ptr %9, align 8
  store i64 %83, ptr %2, align 8
  br label %166

84:                                               ; preds = %71
  %85 = load ptr, ptr %4, align 8
  %86 = load ptr, ptr %85, align 8
  %87 = getelementptr inbounds %struct.JNINativeInterface_, ptr %86, i32 0, i32 95
  %88 = load ptr, ptr %87, align 8
  %89 = load ptr, ptr %4, align 8
  %90 = load ptr, ptr @jInitArgsObject, align 8
  %91 = load ptr, ptr %14, align 8
  %92 = call ptr %88(ptr noundef %89, ptr noundef %90, ptr noundef %91)
  store ptr %92, ptr %15, align 8
  %93 = load ptr, ptr %4, align 8
  %94 = load ptr, ptr %93, align 8
  %95 = getelementptr inbounds %struct.JNINativeInterface_, ptr %94, i32 0, i32 33
  %96 = load ptr, ptr %95, align 8
  %97 = load ptr, ptr %4, align 8
  %98 = load ptr, ptr %11, align 8
  %99 = call ptr %96(ptr noundef %97, ptr noundef %98, ptr noundef @.str.23, ptr noundef @.str.21)
  store ptr %99, ptr %13, align 8
  %100 = load ptr, ptr %13, align 8
  %101 = icmp eq ptr %100, null
  br i1 %101, label %102, label %104

102:                                              ; preds = %84
  %103 = load i64, ptr %9, align 8
  store i64 %103, ptr %2, align 8
  br label %166

104:                                              ; preds = %84
  %105 = load ptr, ptr %4, align 8
  %106 = load ptr, ptr %105, align 8
  %107 = getelementptr inbounds %struct.JNINativeInterface_, ptr %106, i32 0, i32 61
  %108 = load ptr, ptr %107, align 8
  %109 = load ptr, ptr %4, align 8
  %110 = load ptr, ptr %15, align 8
  %111 = load ptr, ptr %13, align 8
  %112 = load ptr, ptr %16, align 8
  call void (ptr, ptr, ptr, ...) %108(ptr noundef %109, ptr noundef %110, ptr noundef %111, ptr noundef %112)
  %113 = load ptr, ptr %4, align 8
  %114 = load ptr, ptr %113, align 8
  %115 = getelementptr inbounds %struct.JNINativeInterface_, ptr %114, i32 0, i32 15
  %116 = load ptr, ptr %115, align 8
  %117 = load ptr, ptr %4, align 8
  %118 = call ptr %116(ptr noundef %117)
  store ptr %118, ptr %6, align 8
  %119 = load ptr, ptr %6, align 8
  %120 = icmp ne ptr %119, null
  br i1 %120, label %121, label %154

121:                                              ; preds = %104
  %122 = load ptr, ptr %4, align 8
  %123 = load ptr, ptr %122, align 8
  %124 = getelementptr inbounds %struct.JNINativeInterface_, ptr %123, i32 0, i32 6
  %125 = load ptr, ptr %124, align 8
  %126 = load ptr, ptr %4, align 8
  %127 = call ptr %125(ptr noundef %126, ptr noundef @.str.16)
  store ptr %127, ptr %7, align 8
  %128 = load ptr, ptr %7, align 8
  %129 = icmp eq ptr %128, null
  br i1 %129, label %130, label %132

130:                                              ; preds = %121
  %131 = load i64, ptr %9, align 8
  store i64 %131, ptr %2, align 8
  br label %166

132:                                              ; preds = %121
  %133 = load ptr, ptr %4, align 8
  %134 = load ptr, ptr %133, align 8
  %135 = getelementptr inbounds %struct.JNINativeInterface_, ptr %134, i32 0, i32 33
  %136 = load ptr, ptr %135, align 8
  %137 = load ptr, ptr %4, align 8
  %138 = load ptr, ptr %7, align 8
  %139 = call ptr %136(ptr noundef %137, ptr noundef %138, ptr noundef @.str.17, ptr noundef @.str.18)
  store ptr %139, ptr %13, align 8
  %140 = load ptr, ptr %13, align 8
  %141 = icmp eq ptr %140, null
  br i1 %141, label %142, label %144

142:                                              ; preds = %132
  %143 = load i64, ptr %9, align 8
  store i64 %143, ptr %2, align 8
  br label %166

144:                                              ; preds = %132
  %145 = load ptr, ptr %4, align 8
  %146 = load ptr, ptr %145, align 8
  %147 = getelementptr inbounds %struct.JNINativeInterface_, ptr %146, i32 0, i32 52
  %148 = load ptr, ptr %147, align 8
  %149 = load ptr, ptr %4, align 8
  %150 = load ptr, ptr %6, align 8
  %151 = load ptr, ptr %13, align 8
  %152 = call i64 (ptr, ptr, ptr, ...) %148(ptr noundef %149, ptr noundef %150, ptr noundef %151)
  store i64 %152, ptr %8, align 8
  %153 = load i64, ptr %8, align 8
  store i64 %153, ptr %9, align 8
  br label %154

154:                                              ; preds = %144, %104
  %155 = load i32, ptr %10, align 4
  %156 = icmp ne i32 %155, 0
  br i1 %156, label %157, label %164

157:                                              ; preds = %154
  %158 = load ptr, ptr @jvm_j2pkcs11, align 8
  %159 = load ptr, ptr %158, align 8
  %160 = getelementptr inbounds %struct.JNIInvokeInterface_, ptr %159, i32 0, i32 5
  %161 = load ptr, ptr %160, align 8
  %162 = load ptr, ptr @jvm_j2pkcs11, align 8
  %163 = call i32 %161(ptr noundef %162)
  store i32 %163, ptr %5, align 4
  br label %164

164:                                              ; preds = %157, %154
  %165 = load i64, ptr %9, align 8
  store i64 %165, ptr %2, align 8
  br label %166

166:                                              ; preds = %164, %142, %130, %102, %82, %69, %58, %19
  %167 = load i64, ptr %2, align 8
  ret i64 %167
}