; Function Attrs: nounwind uwtable
define hidden i64 @callJLockMutex(ptr noundef %0) #0 {
  %2 = alloca ptr, align 8
  %3 = load ptr, ptr @jvm_j2pkcs11, align 8
  %4 = icmp eq ptr %3, null
  br i1 %4, label %87, label %5

5:                                                ; preds = %1
  %6 = load ptr, ptr %3, align 8
  %7 = getelementptr inbounds i8, ptr %6, i64 48
  %8 = load ptr, ptr %7, align 8
  %9 = call i32 %8(ptr noundef nonnull %3, ptr noundef nonnull %2, i32 noundef 65538) #7
  %10 = icmp eq i32 %9, -2
  %.off = add i32 %9, 3
  %switch = icmp ult i32 %.off, 2
  br i1 %switch, label %.sink.split, label %16

.sink.split:                                      ; preds = %5
  %11 = load ptr, ptr @jvm_j2pkcs11, align 8
  %12 = load ptr, ptr %11, align 8
  %13 = getelementptr inbounds i8, ptr %12, i64 32
  %14 = load ptr, ptr %13, align 8
  %15 = call i32 %14(ptr noundef nonnull %11, ptr noundef nonnull %2, ptr noundef null) #7
  br label %16

16:                                               ; preds = %5, %.sink.split
  %17 = load ptr, ptr %2, align 8
  %18 = load ptr, ptr %17, align 8
  %19 = getelementptr inbounds i8, ptr %18, i64 48
  %20 = load ptr, ptr %19, align 8
  %21 = call ptr %20(ptr noundef nonnull %17, ptr noundef nonnull @.str.22) #7
  %22 = icmp eq ptr %21, null
  br i1 %22, label %87, label %23

23:                                               ; preds = %16
  %24 = load ptr, ptr %2, align 8
  %25 = load ptr, ptr %24, align 8
  %26 = getelementptr inbounds i8, ptr %25, i64 48
  %27 = load ptr, ptr %26, align 8
  %28 = call ptr %27(ptr noundef nonnull %24, ptr noundef nonnull @.str) #7
  %29 = icmp eq ptr %28, null
  br i1 %29, label %87, label %30

30:                                               ; preds = %23
  %31 = load ptr, ptr %2, align 8
  %32 = load ptr, ptr %31, align 8
  %33 = getelementptr inbounds i8, ptr %32, i64 752
  %34 = load ptr, ptr %33, align 8
  %35 = call ptr %34(ptr noundef nonnull %31, ptr noundef nonnull %28, ptr noundef nonnull @.str.5, ptr noundef nonnull @.str.6) #7
  %36 = icmp eq ptr %35, null
  br i1 %36, label %87, label %37

37:                                               ; preds = %30
  %38 = load ptr, ptr %2, align 8
  %39 = load ptr, ptr %38, align 8
  %40 = getelementptr inbounds i8, ptr %39, i64 760
  %41 = load ptr, ptr %40, align 8
  %42 = load ptr, ptr @jInitArgsObject, align 8
  %43 = call ptr %41(ptr noundef nonnull %38, ptr noundef %42, ptr noundef nonnull %35) #7
  %44 = load ptr, ptr %2, align 8
  %45 = load ptr, ptr %44, align 8
  %46 = getelementptr inbounds i8, ptr %45, i64 264
  %47 = load ptr, ptr %46, align 8
  %48 = call ptr %47(ptr noundef nonnull %44, ptr noundef nonnull %21, ptr noundef nonnull @.str.23, ptr noundef nonnull @.str.21) #7
  %49 = icmp eq ptr %48, null
  br i1 %49, label %87, label %50

50:                                               ; preds = %37
  %51 = load ptr, ptr %2, align 8
  %52 = load ptr, ptr %51, align 8
  %53 = getelementptr inbounds i8, ptr %52, i64 488
  %54 = load ptr, ptr %53, align 8
  call void (ptr, ptr, ptr, ...) %54(ptr noundef nonnull %51, ptr noundef %43, ptr noundef nonnull %48, ptr noundef %0) #7
  %55 = load ptr, ptr %2, align 8
  %56 = load ptr, ptr %55, align 8
  %57 = getelementptr inbounds i8, ptr %56, i64 120
  %58 = load ptr, ptr %57, align 8
  %59 = call ptr %58(ptr noundef nonnull %55) #7
  %.not = icmp eq ptr %59, null
  br i1 %.not, label %80, label %60

60:                                               ; preds = %50
  %61 = load ptr, ptr %2, align 8
  %62 = load ptr, ptr %61, align 8
  %63 = getelementptr inbounds i8, ptr %62, i64 48
  %64 = load ptr, ptr %63, align 8
  %65 = call ptr %64(ptr noundef nonnull %61, ptr noundef nonnull @.str.16) #7
  %66 = icmp eq ptr %65, null
  br i1 %66, label %87, label %67

67:                                               ; preds = %60
  %68 = load ptr, ptr %2, align 8
  %69 = load ptr, ptr %68, align 8
  %70 = getelementptr inbounds i8, ptr %69, i64 264
  %71 = load ptr, ptr %70, align 8
  %72 = call ptr %71(ptr noundef nonnull %68, ptr noundef nonnull %65, ptr noundef nonnull @.str.17, ptr noundef nonnull @.str.18) #7
  %73 = icmp eq ptr %72, null
  br i1 %73, label %87, label %74

74:                                               ; preds = %67
  %75 = load ptr, ptr %2, align 8
  %76 = load ptr, ptr %75, align 8
  %77 = getelementptr inbounds i8, ptr %76, i64 416
  %78 = load ptr, ptr %77, align 8
  %79 = call i64 (ptr, ptr, ptr, ...) %78(ptr noundef nonnull %75, ptr noundef nonnull %59, ptr noundef nonnull %72) #7
  br label %80

80:                                               ; preds = %74, %50
  %.029 = phi i64 [ %79, %74 ], [ 0, %50 ]
  br i1 %10, label %87, label %81

81:                                               ; preds = %80
  %82 = load ptr, ptr @jvm_j2pkcs11, align 8
  %83 = load ptr, ptr %82, align 8
  %84 = getelementptr inbounds i8, ptr %83, i64 40
  %85 = load ptr, ptr %84, align 8
  %86 = call i32 %85(ptr noundef nonnull %82) #7
  br label %87

87:                                               ; preds = %80, %81, %67, %60, %37, %30, %23, %16, %1
  %.0 = phi i64 [ 0, %1 ], [ 0, %16 ], [ 0, %23 ], [ 0, %30 ], [ 0, %37 ], [ 0, %60 ], [ 0, %67 ], [ %.029, %81 ], [ %.029, %80 ]
  ret i64 %.0
}